(lp0
(S'quenet-j'
p1
c__builtin__
set
p2
((lp3
S'benson-r'
p4
aS'arora-h'
p5
aS'dorland-c'
p6
atp7
Rp8
tp9
a(S'perlingiere-d'
p10
g2
((lp11
S'staab-t'
p12
aS'perlingiere-d'
p13
aS'storey-g'
p14
aS'heard-m'
p15
aS'nemec-g'
p16
aS'bailey-s'
p17
aS'whitt-m'
p18
atp19
Rp20
tp21
a(S'davis-d'
p22
g2
((lp23
S'benson-r'
p24
aS'davis-d'
p25
aS'rogers-b'
p26
aS'quenet-j'
p27
atp28
Rp29
tp30
a(S'geaccone-t'
p31
g2
((lp32
S'corman-s'
p33
aS'lokay-m'
p34
aS'donoho-l'
p35
aS'harris-s'
p36
aS'mcconnell-m'
p37
aS'watson-k'
p38
aS'mccarty-d'
p39
aS'fossum-d'
p40
aS'hayslett-r'
p41
atp42
Rp43
tp44
a(S'griffith-j'
p45
g2
((lp46
S'zipper-a'
p47
aS'maggi-m'
p48
aS'mckay-b'
p49
aS'smith-m'
p50
aS'mckay-j'
p51
aS'may-l'
p52
aS'pimenov-v'
p53
aS'mclaughlin-e'
p54
aS'arnold-j'
p55
aS'quigley-d'
p56
atp57
Rp58
tp59
a(S'dean-c'
p60
g2
((lp61
S'baughman-d'
p62
aS'hernandez-j'
p63
aS'saibi-e'
p64
aS'king-j'
p65
atp66
Rp67
tp68
a(S'schoolcraft-d'
p69
g2
((lp70
S'watson-k'
p71
aS'lokay-m'
p72
aS'hyatt-k'
p73
aS'corman-s'
p74
aS'geaccone-t'
p75
aS'jones-t'
p76
atp77
Rp78
tp79
a(S'hyatt-k'
p80
g2
((lp81
S'lay-k'
p82
aS'schoolcraft-d'
p83
aS'lokay-m'
p84
aS'donoho-l'
p85
aS'lokey-t'
p86
aS'harris-s'
p87
aS'watson-k'
p88
aS'campbell-l'
p89
aS'fossum-d'
p90
aS'blair-l'
p91
atp92
Rp93
tp94
a(S'mcconnell-m'
p95
g2
((lp96
S'derrick-j'
p97
aS'lay-k'
p98
aS'watson-k'
p99
aS'lavorato-j'
p100
aS'lokay-m'
p101
aS'delainey-d'
p102
aS'donoho-l'
p103
aS'lokey-t'
p104
aS'harris-s'
p105
aS'mcconnell-m'
p106
aS'buy-r'
p107
aS'campbell-l'
p108
aS'horton-s'
p109
aS'geaccone-t'
p110
aS'whalley-g'
p111
aS'hayslett-r'
p112
aS'kitchen-l'
p113
atp114
Rp115
tp116
a(S'semperger-c'
p117
g2
((lp118
S'scholtes-d'
p119
aS'gang-l'
p120
aS'symes-k'
p121
aS'salisbury-h'
p122
aS'fischer-m'
p123
atp124
Rp125
tp126
a(S'ermis-f'
p127
g2
((lp128
S'reitmeyer-j'
p129
aS'grigsby-m'
p130
aS'wolfe-j'
p131
aS'ermis-f'
p132
atp133
Rp134
tp135
a(S'whalley-g'
p136
g2
((lp137
S'zipper-a'
p138
aS'beck-s'
p139
aS'lavorato-j'
p140
aS'delainey-d'
p141
aS'mcconnell-m'
p142
aS'skilling-j'
p143
aS'kitchen-l'
p144
atp145
Rp146
tp147
a(S'zipper-a'
p148
g2
((lp149
S'griffith-j'
p150
aS'kitchen-l'
p151
aS'may-l'
p152
aS'whalley-g'
p153
aS'mclaughlin-e'
p154
aS'arnold-j'
p155
atp156
Rp157
tp158
a(S'hernandez-j'
p159
g2
((lp160
S'baughman-d'
p161
atp162
Rp163
tp164
a(S'lavorato-j'
p165
g2
((lp166
S'motley-m'
p167
aS'kitchen-l'
p168
aS'mckay-j'
p169
aS'buy-r'
p170
aS'whalley-g'
p171
aS'arnold-j'
p172
aS'tycholiz-b'
p173
atp174
Rp175
tp176
a(S'harris-s'
p177
g2
((lp178
S'lokay-m'
p179
aS'donoho-l'
p180
aS'lokey-t'
p181
aS'hyatt-k'
p182
aS'mcconnell-m'
p183
aS'watson-k'
p184
aS'geaccone-t'
p185
aS'mccarty-d'
p186
aS'fossum-d'
p187
atp188
Rp189
tp190
a(S'scholtes-d'
p191
g2
((lp192
S'fischer-m'
p193
aS'motley-m'
p194
aS'platter-p'
p195
aS'symes-k'
p196
aS'semperger-c'
p197
aS'swerzbin-m'
p198
atp199
Rp200
tp201
a(S'causholli-m'
p202
g2
((lp203
S'causholli-m'
p204
atp205
Rp206
tp207
a(S'fossum-d'
p208
g2
((lp209
S'corman-s'
p210
aS'rapp-b'
p211
aS'smith-m'
p212
aS'donoho-l'
p213
aS'lokey-t'
p214
aS'hyatt-k'
p215
aS'harris-s'
p216
aS'watson-k'
p217
aS'horton-s'
p218
aS'mccarty-d'
p219
aS'fossum-d'
p220
aS'hayslett-r'
p221
aS'blair-l'
p222
atp223
Rp224
tp225
a(S'stokley-c'
p226
g2
((lp227
S'stokley-c'
p228
aS'symes-k'
p229
atp230
Rp231
tp232
a(S'tycholiz-b'
p233
g2
((lp234
S'lucci-p'
p235
aS'dasovich-j'
p236
aS'lavorato-j'
p237
aS'kitchen-l'
p238
aS'mckay-j'
p239
aS'dorland-c'
p240
aS'mcconnell-m'
p241
aS'williams-j'
p242
aS'holst-k'
p243
aS'grigsby-m'
p244
aS'nemec-g'
p245
aS'delainey-d'
p246
aS'whitt-m'
p247
atp248
Rp249
tp250
a(S'staab-t'
p251
g2
((lp252
S'staab-t'
p253
aS'nemec-g'
p254
aS'reitmeyer-j'
p255
aS'whitt-m'
p256
atp257
Rp258
tp259
a(S'lenhart-m'
p260
g2
((lp261
S'cuilla-m'
p262
aS'bass-e'
p263
aS'dorland-c'
p264
aS'motley-m'
p265
aS'grigsby-m'
p266
aS'wolfe-j'
p267
atp268
Rp269
tp270
a(S'weldon-c'
p271
g2
((lp272
S'bass-e'
p273
atp274
Rp275
tp276
a(S'schwieger-j'
p277
g2
((lp278
S'bass-e'
p279
aS'weldon-c'
p280
aS'lay-k'
p281
aS'parks-j'
p282
atp283
Rp284
tp285
a(S'heard-m'
p286
g2
((lp287
S'panus-s'
p288
aS'sager-e'
p289
aS'williams-j'
p290
aS'perlingiere-d'
p291
aS'jones-t'
p292
aS'heard-m'
p293
aS'nemec-g'
p294
aS'shackleton-s'
p295
aS'bailey-s'
p296
atp297
Rp298
tp299
a(S'buy-r'
p300
g2
((lp301
S'buy-r'
p302
aS'lay-k'
p303
aS'delainey-d'
p304
aS'beck-s'
p305
aS'lavorato-j'
p306
atp307
Rp308
tp309
a(S'baughman-d'
p310
g2
((lp311
S'stepenovitch-j'
p312
aS'hernandez-j'
p313
aS'rogers-b'
p314
atp315
Rp316
tp317
a(S'rapp-b'
p318
g2
((lp319
S'rapp-b'
p320
atp321
Rp322
tp323
a(S'cuilla-m'
p324
g2
((lp325
S'mckay-b'
p326
aS'cuilla-m'
p327
aS'bass-e'
p328
aS'neal-s'
p329
aS'kuykendall-t'
p330
aS'ruscitti-k'
p331
aS'dorland-c'
p332
aS'storey-g'
p333
aS'lenhart-m'
p334
aS'grigsby-m'
p335
aS'ermis-f'
p336
atp337
Rp338
tp339
a(S'lokay-m'
p340
g2
((lp341
S'schoolcraft-d'
p342
aS'lokay-m'
p343
aS'donoho-l'
p344
aS'harris-s'
p345
aS'mcconnell-m'
p346
aS'hyatt-k'
p347
aS'watson-k'
p348
aS'geaccone-t'
p349
atp350
Rp351
tp352
a(S'dorland-c'
p353
g2
((lp354
S'mckay-j'
p355
aS'lavorato-j'
p356
aS'benson-r'
p357
aS'zufferli-j'
p358
aS'king-j'
p359
aS'cuilla-m'
p360
aS'richey-c'
p361
aS'storey-g'
p362
aS'carson-m'
p363
aS'holst-k'
p364
aS'lenhart-m'
p365
aS'grigsby-m'
p366
aS'tycholiz-b'
p367
atp368
Rp369
tp370
a(S'badeer-r'
p371
g2
((lp372
S'lavorato-j'
p373
atp374
Rp375
tp376
a(S'jones-t'
p377
g2
((lp378
S'panus-s'
p379
aS'smith-m'
p380
aS'perlingiere-d'
p381
aS'campbell-l'
p382
aS'quigley-d'
p383
aS'heard-m'
p384
aS'shackleton-s'
p385
aS'arnold-j'
p386
aS'bailey-s'
p387
atp388
Rp389
tp390
a(S'symes-k'
p391
g2
((lp392
S'gang-l'
p393
aS'salisbury-h'
p394
aS'platter-p'
p395
aS'semperger-c'
p396
aS'scholtes-d'
p397
atp398
Rp399
tp400
a(S'wolfe-j'
p401
g2
((lp402
S'lenhart-m'
p403
aS'grigsby-m'
p404
aS'ermis-f'
p405
aS'reitmeyer-j'
p406
aS'tycholiz-b'
p407
atp408
Rp409
tp410
a(S'ring-a'
p411
g2
((lp412
S'brawner-s'
p413
atp414
Rp415
tp416
a(S'zufferli-j'
p417
g2
((lp418
S'grigsby-m'
p419
aS'richey-c'
p420
aS'dorland-c'
p421
aS'lavorato-j'
p422
atp423
Rp424
tp425
a(S'ring-r'
p426
g2
((lp427
S'ring-r'
p428
atp429
Rp430
tp431
a(S'holst-k'
p432
g2
((lp433
S'storey-g'
p434
aS'grigsby-m'
p435
atp436
Rp437
tp438
a(S'nemec-g'
p439
g2
((lp440
S'tycholiz-b'
p441
aS'lucci-p'
p442
aS'nemec-g'
p443
aS'perlingiere-d'
p444
aS'whitt-m'
p445
atp446
Rp447
tp448
a(S'mann-k'
p449
g2
((lp450
S'sager-e'
p451
aS'nemec-g'
p452
atp453
Rp454
tp455
a(S'cash-m'
p456
g2
((lp457
S'cash-m'
p458
atp459
Rp460
tp461
a(S'scott-s'
p462
g2
((lp463
S'baughman-d'
p464
aS'hernandez-j'
p465
aS'carson-m'
p466
aS'benson-r'
p467
aS'king-j'
p468
aS'dorland-c'
p469
aS'quenet-j'
p470
aS'davis-d'
p471
aS'stepenovitch-j'
p472
aS'saibi-e'
p473
aS'tycholiz-b'
p474
atp475
Rp476
tp477
a(S'blair-l'
p478
g2
((lp479
S'watson-k'
p480
aS'schoolcraft-d'
p481
aS'lokay-m'
p482
aS'lokey-t'
p483
aS'williams-j'
p484
aS'harris-s'
p485
aS'corman-s'
p486
aS'mccarty-d'
p487
aS'blair-l'
p488
atp489
Rp490
tp491
a(S'keiser-k'
p492
g2
((lp493
S'ring-a'
p494
aS'mckay-b'
p495
aS'mclaughlin-e'
p496
aS'keiser-k'
p497
aS'neal-s'
p498
aS'mckay-j'
p499
aS'townsend-j'
p500
aS'hodge-j'
p501
aS'pimenov-v'
p502
aS'germany-c'
p503
atp504
Rp505
tp506
a(S'stepenovitch-j'
p507
g2
((lp508
S'stepenovitch-j'
p509
atp510
Rp511
tp512
a(S'grigsby-m'
p513
g2
((lp514
S'storey-g'
p515
aS'reitmeyer-j'
p516
aS'lavorato-j'
p517
aS'smith-m'
p518
aS'lenhart-m'
p519
aS'neal-s'
p520
aS'holst-k'
p521
aS'dorland-c'
p522
aS'motley-m'
p523
aS'cuilla-m'
p524
aS'badeer-r'
p525
aS'bass-e'
p526
aS'kuykendall-t'
p527
aS'parks-j'
p528
aS'sanchez-m'
p529
aS'grigsby-m'
p530
aS'wolfe-j'
p531
aS'ermis-f'
p532
aS'arnold-j'
p533
aS'tycholiz-b'
p534
atp535
Rp536
tp537
a(S'swerzbin-m'
p538
g2
((lp539
S'motley-m'
p540
aS'holst-k'
p541
atp542
Rp543
tp544
a(S'shapiro-r'
p545
g2
((lp546
S'lay-k'
p547
aS'dasovich-j'
p548
aS'shapiro-r'
p549
aS'lavorato-j'
p550
aS'kitchen-l'
p551
aS'whalley-g'
p552
aS'delainey-d'
p553
atp554
Rp555
tp556
a(S'neal-s'
p557
g2
((lp558
S'grigsby-m'
p559
aS'mckay-j'
p560
aS'lavorato-j'
p561
atp562
Rp563
tp564
a(S'mclaughlin-e'
p565
g2
((lp566
S'maggi-m'
p567
aS'zipper-a'
p568
aS'griffith-j'
p569
aS'keiser-k'
p570
aS'may-l'
p571
aS'mclaughlin-e'
p572
aS'arnold-j'
p573
aS'quigley-d'
p574
atp575
Rp576
tp577
a(S'kuykendall-t'
p578
g2
((lp579
S'cuilla-m'
p580
aS'sanchez-m'
p581
aS'grigsby-m'
p582
aS'reitmeyer-j'
p583
aS'lenhart-m'
p584
atp585
Rp586
tp587
a(S'mccarty-d'
p588
g2
((lp589
S'corman-s'
p590
aS'lokay-m'
p591
aS'donoho-l'
p592
aS'lokey-t'
p593
aS'harris-s'
p594
aS'hyatt-k'
p595
aS'watson-k'
p596
aS'horton-s'
p597
aS'fossum-d'
p598
aS'hayslett-r'
p599
atp600
Rp601
tp602
a(S'sager-e'
p603
g2
((lp604
S'heard-m'
p605
aS'sager-e'
p606
aS'mann-k'
p607
atp608
Rp609
tp610
a(S'arnold-j'
p611
g2
((lp612
S'maggi-m'
p613
aS'zipper-a'
p614
aS'ring-a'
p615
aS'mckay-b'
p616
aS'mclaughlin-e'
p617
aS'lavorato-j'
p618
aS'neal-s'
p619
aS'may-l'
p620
aS'storey-g'
p621
aS'griffith-j'
p622
aS'grigsby-m'
p623
aS'arnold-j'
p624
aS'quigley-d'
p625
atp626
Rp627
tp628
a(S'lay-k'
p629
g2
((lp630
S'shapiro-r'
p631
aS'weldon-c'
p632
aS'lenhart-m'
p633
aS'neal-s'
p634
aS'richey-c'
p635
aS'rogers-b'
p636
aS'arora-h'
p637
aS'mclaughlin-e'
p638
aS'sanchez-m'
p639
aS'mccarty-d'
p640
aS'arnold-j'
p641
aS'quigley-d'
p642
aS'buy-r'
p643
aS'baughman-d'
p644
aS'lay-k'
p645
aS'taylor-m'
p646
aS'smith-m'
p647
aS'keiser-k'
p648
aS'king-j'
p649
aS'davis-d'
p650
aS'mcconnell-m'
p651
aS'horton-s'
p652
aS'whalley-g'
p653
aS'wolfe-j'
p654
aS'kitchen-l'
p655
aS'zipper-a'
p656
aS'hernandez-j'
p657
aS'lavorato-j'
p658
aS'delainey-d'
p659
aS'zufferli-j'
p660
aS'williams-j'
p661
aS'scholtes-d'
p662
aS'causholli-m'
p663
aS'pimenov-v'
p664
aS'whitt-m'
p665
aS'reitmeyer-j'
p666
aS'beck-s'
p667
aS'derrick-j'
p668
aS'stokley-c'
p669
aS'grigsby-m'
p670
aS'hayslett-r'
p671
aS'swerzbin-m'
p672
aS'tycholiz-b'
p673
atp674
Rp675
tp676
a(S'smith-m'
p677
g2
((lp678
S'storey-g'
p679
aS'sanchez-m'
p680
aS'jones-t'
p681
aS'dasovich-j'
p682
atp683
Rp684
tp685
a(S'horton-s'
p686
g2
((lp687
S'corman-s'
p688
aS'lay-k'
p689
aS'buy-r'
p690
aS'horton-s'
p691
aS'whalley-g'
p692
aS'mccarty-d'
p693
aS'fossum-d'
p694
aS'hayslett-r'
p695
atp696
Rp697
tp698
a(S'shackleton-s'
p699
g2
((lp700
S'ward-k'
p701
aS'heard-m'
p702
aS'panus-s'
p703
aS'jones-t'
p704
aS'bailey-s'
p705
atp706
Rp707
tp708
a(S'beck-s'
p709
g2
((lp710
S'maggi-m'
p711
aS'griffith-j'
p712
aS'carson-m'
p713
aS'neal-s'
p714
aS'holst-k'
p715
aS'rogers-b'
p716
aS'arora-h'
p717
aS'schwieger-j'
p718
aS'mclaughlin-e'
p719
aS'arnold-j'
p720
aS'quigley-d'
p721
aS'derrick-j'
p722
aS'dean-c'
p723
aS'lay-k'
p724
aS'cuilla-m'
p725
aS'keiser-k'
p726
aS'king-j'
p727
aS'davis-d'
p728
aS'mcconnell-m'
p729
aS'storey-g'
p730
aS'horton-s'
p731
aS'whalley-g'
p732
aS'wolfe-j'
p733
aS'ermis-f'
p734
aS'delainey-d'
p735
aS'zipper-a'
p736
aS'hernandez-j'
p737
aS'lavorato-j'
p738
aS'benson-r'
p739
aS'kitchen-l'
p740
aS'donohoe-t'
p741
aS'baughman-d'
p742
aS'quenet-j'
p743
aS'hendrickson-s'
p744
aS'thomas-p'
p745
aS'mckay-b'
p746
aS'reitmeyer-j'
p747
aS'beck-s'
p748
aS'bass-e'
p749
aS'buy-r'
p750
aS'campbell-l'
p751
aS'may-l'
p752
aS'parks-j'
p753
aS'stepenovitch-j'
p754
aS'saibi-e'
p755
atp756
Rp757
tp758
a(S'williams-j'
p759
g2
((lp760
S'hyatt-k'
p761
aS'shapiro-r'
p762
aS'lokay-m'
p763
aS'donoho-l'
p764
aS'harris-s'
p765
aS'williams-j'
p766
aS'watson-k'
p767
aS'ring-r'
p768
aS'panus-s'
p769
aS'kitchen-l'
p770
atp771
Rp772
tp773
a(S'germany-c'
p774
g2
((lp775
S'ring-a'
p776
aS'donohoe-t'
p777
aS'townsend-j'
p778
aS'hodge-j'
p779
atp780
Rp781
tp782
a(S'whitt-m'
p783
g2
((lp784
S'reitmeyer-j'
p785
aS'tycholiz-b'
p786
aS'staab-t'
p787
aS'nemec-g'
p788
aS'whitt-m'
p789
atp790
Rp791
tp792
a(S'panus-s'
p793
g2
((lp794
S'heard-m'
p795
aS'shackleton-s'
p796
aS'jones-t'
p797
aS'bailey-s'
p798
aS'williams-j'
p799
atp800
Rp801
tp802
a(S'derrick-j'
p803
g2
((lp804
S'cash-m'
p805
aS'fossum-d'
p806
aS'lay-k'
p807
aS'whalley-g'
p808
atp809
Rp810
tp811
a(S'hayslett-r'
p812
g2
((lp813
S'beck-s'
p814
aS'mcconnell-m'
p815
aS'horton-s'
p816
aS'geaccone-t'
p817
aS'mccarty-d'
p818
aS'fossum-d'
p819
aS'hayslett-r'
p820
atp821
Rp822
tp823
a(S'maggi-m'
p824
g2
((lp825
S'ward-k'
p826
aS'arnold-j'
p827
aS'griffith-j'
p828
atp829
Rp830
tp831
a(S'lokey-t'
p832
g2
((lp833
S'corman-s'
p834
aS'watson-k'
p835
aS'fossum-d'
p836
aS'campbell-l'
p837
atp838
Rp839
tp840
a(S'rogers-b'
p841
g2
((lp842
S'benson-r'
p843
aS'lay-k'
p844
aS'davis-d'
p845
aS'quenet-j'
p846
atp847
Rp848
tp849
a(S'slinger-r'
p850
g2
((lp851
S'dean-c'
p852
aS'linder-e'
p853
aS'guzman-m'
p854
aS'solberg-g'
p855
aS'merriss-s'
p856
aS'slinger-r'
p857
aS'symes-k'
p858
atp859
Rp860
tp861
a(S'sanchez-m'
p862
g2
((lp863
S'reitmeyer-j'
p864
aS'smith-m'
p865
aS'bass-e'
p866
aS'neal-s'
p867
aS'kuykendall-t'
p868
aS'may-l'
p869
aS'motley-m'
p870
aS'ward-k'
p871
aS'badeer-r'
p872
aS'mclaughlin-e'
p873
aS'holst-k'
p874
aS'lenhart-m'
p875
aS'grigsby-m'
p876
aS'wolfe-j'
p877
aS'ermis-f'
p878
aS'quigley-d'
p879
aS'tycholiz-b'
p880
atp881
Rp882
tp883
a(S'quigley-d'
p884
g2
((lp885
S'storey-g'
p886
aS'quigley-d'
p887
aS'arnold-j'
p888
aS'griffith-j'
p889
atp890
Rp891
tp892
a(S'motley-m'
p893
g2
((lp894
S'badeer-r'
p895
aS'swerzbin-m'
p896
atp897
Rp898
tp899
a(S'fischer-m'
p900
g2
((lp901
S'salisbury-h'
p902
aS'motley-m'
p903
aS'fischer-m'
p904
atp905
Rp906
tp907
a(S'dasovich-j'
p908
g2
((lp909
S'dasovich-j'
p910
aS'shapiro-r'
p911
aS'lavorato-j'
p912
aS'smith-m'
p913
aS'delainey-d'
p914
aS'lokey-t'
p915
aS'donoho-l'
p916
aS'watson-k'
p917
aS'ring-r'
p918
aS'badeer-r'
p919
aS'whalley-g'
p920
aS'kitchen-l'
p921
aS'tycholiz-b'
p922
atp923
Rp924
tp925
a(S'storey-g'
p926
g2
((lp927
S'kitchen-l'
p928
aS'quigley-d'
p929
atp930
Rp931
tp932
a(S'kitchen-l'
p933
g2
((lp934
S'zipper-a'
p935
aS'storey-g'
p936
aS'beck-s'
p937
aS'shapiro-r'
p938
aS'dasovich-j'
p939
aS'lavorato-j'
p940
aS'benson-r'
p941
aS'cash-m'
p942
aS'kitchen-l'
p943
aS'delainey-d'
p944
aS'williams-j'
p945
aS'mcconnell-m'
p946
aS'buy-r'
p947
aS'cuilla-m'
p948
aS'whalley-g'
p949
aS'mccarty-d'
p950
aS'arnold-j'
p951
aS'tycholiz-b'
p952
atp953
Rp954
tp955
a(S'lucci-p'
p956
g2
((lp957
S'staab-t'
p958
aS'whitt-m'
p959
atp960
Rp961
tp962
a(S'salisbury-h'
p963
g2
((lp964
S'gang-l'
p965
aS'scholtes-d'
p966
aS'symes-k'
p967
aS'semperger-c'
p968
aS'fischer-m'
p969
atp970
Rp971
tp972
a(S'donoho-l'
p973
g2
((lp974
S'corman-s'
p975
aS'schoolcraft-d'
p976
aS'lokay-m'
p977
aS'lokey-t'
p978
aS'harris-s'
p979
aS'mcconnell-m'
p980
aS'watson-k'
p981
aS'geaccone-t'
p982
aS'blair-l'
p983
atp984
Rp985
tp986
a(S'watson-k'
p987
g2
((lp988
S'williams-j'
p989
aS'schoolcraft-d'
p990
aS'lokay-m'
p991
aS'donoho-l'
p992
aS'lokey-t'
p993
aS'harris-s'
p994
aS'mcconnell-m'
p995
aS'hyatt-k'
p996
aS'corman-s'
p997
aS'geaccone-t'
p998
aS'fossum-d'
p999
aS'blair-l'
p1000
atp1001
Rp1002
tp1003
a(S'skilling-j'
p1004
g2
((lp1005
S'zipper-a'
p1006
aS'derrick-j'
p1007
aS'skilling-j'
p1008
aS'beck-s'
p1009
aS'shapiro-r'
p1010
aS'lavorato-j'
p1011
aS'delainey-d'
p1012
aS'corman-s'
p1013
aS'harris-s'
p1014
aS'williams-j'
p1015
aS'buy-r'
p1016
aS'horton-s'
p1017
aS'taylor-m'
p1018
aS'whalley-g'
p1019
aS'mccarty-d'
p1020
aS'fossum-d'
p1021
aS'kitchen-l'
p1022
aS'tycholiz-b'
p1023
atp1024
Rp1025
tp1026
a(S'mckay-b'
p1027
g2
((lp1028
S'mckay-j'
p1029
atp1030
Rp1031
tp1032
a(S'reitmeyer-j'
p1033
g2
((lp1034
S'grigsby-m'
p1035
aS'ermis-f'
p1036
aS'badeer-r'
p1037
aS'holst-k'
p1038
atp1039
Rp1040
tp1041
a(S'bass-e'
p1042
g2
((lp1043
S'lenhart-m'
p1044
aS'grigsby-m'
p1045
atp1046
Rp1047
tp1048
a(S'mckay-j'
p1049
g2
((lp1050
S'maggi-m'
p1051
aS'mckay-b'
p1052
aS'lavorato-j'
p1053
aS'keiser-k'
p1054
aS'neal-s'
p1055
aS'zufferli-j'
p1056
aS'dorland-c'
p1057
aS'pimenov-v'
p1058
atp1059
Rp1060
tp1061
a(S'corman-s'
p1062
g2
((lp1063
S'watson-k'
p1064
aS'schoolcraft-d'
p1065
aS'lokay-m'
p1066
aS'donoho-l'
p1067
aS'lokey-t'
p1068
aS'williams-j'
p1069
aS'harris-s'
p1070
aS'corman-s'
p1071
aS'horton-s'
p1072
aS'geaccone-t'
p1073
aS'mccarty-d'
p1074
aS'fossum-d'
p1075
aS'hayslett-r'
p1076
aS'blair-l'
p1077
atp1078
Rp1079
tp1080
a(S'campbell-l'
p1081
g2
((lp1082
S'hyatt-k'
p1083
atp1084
Rp1085
tp1086
a(S'parks-j'
p1087
g2
((lp1088
S'bass-e'
p1089
atp1090
Rp1091
tp1092
a(S'bailey-s'
p1093
g2
((lp1094
S'heard-m'
p1095
aS'panus-s'
p1096
aS'shackleton-s'
p1097
aS'jones-t'
p1098
aS'perlingiere-d'
p1099
atp1100
Rp1101
tp1102
a.